; Function Attrs: nounwind uwtable
define ptr @l_Array_forIn_x27Unsafe_loop___at_Lean_Elab_Structural_addSmartUnfoldingDefAux_visit___spec__6___lambda__3___boxed(ptr noundef %0, ptr noundef %1, ptr noundef %2, ptr noundef %3, ptr noundef %4, ptr noundef %5, ptr noundef %6, ptr noundef %7, ptr noundef %8, ptr noundef %9, ptr noundef %10, ptr noundef %11) #0 {
  %13 = tail call ptr @l_Array_forIn_x27Unsafe_loop___at_Lean_Elab_Structural_addSmartUnfoldingDefAux_visit___spec__6___lambda__3(ptr noundef %0, ptr noundef %1, ptr noundef %2, ptr noundef %3, ptr noundef %4, ptr noundef %5, ptr noundef %6, ptr noundef %7, ptr noundef %8, ptr noundef %9, ptr noundef %10, ptr noundef %11)
  %14 = ptrtoint ptr %5 to i64
  %15 = and i64 %14, 1
  %.not = icmp eq i64 %15, 0
  br i1 %.not, label %16, label %lean_dec.exit15

16:                                               ; preds = %12
  %17 = load i32, ptr %5, align 4, !tbaa !4
  %18 = icmp sgt i32 %17, 1
  br i1 %18, label %19, label %21, !prof !9

19:                                               ; preds = %16
  %20 = add nsw i32 %17, -1
  store i32 %20, ptr %5, align 4, !tbaa !4
  br label %lean_dec.exit15

21:                                               ; preds = %16
  %.not.i = icmp eq i32 %17, 0
  br i1 %.not.i, label %lean_dec.exit15, label %22

22:                                               ; preds = %21
  tail call void @lean_dec_ref_cold(ptr noundef nonnull %5) #5
  br label %lean_dec.exit15

lean_dec.exit15:                                  ; preds = %22, %21, %19, %12
  %23 = ptrtoint ptr %2 to i64
  %24 = and i64 %23, 1
  %.not18 = icmp eq i64 %24, 0
  br i1 %.not18, label %25, label %lean_dec.exit

25:                                               ; preds = %lean_dec.exit15
  %26 = load i32, ptr %2, align 4, !tbaa !4
  %27 = icmp sgt i32 %26, 1
  br i1 %27, label %28, label %30, !prof !9

28:                                               ; preds = %25
  %29 = add nsw i32 %26, -1
  store i32 %29, ptr %2, align 4, !tbaa !4
  br label %lean_dec.exit

30:                                               ; preds = %25
  %.not.i16 = icmp eq i32 %26, 0
  br i1 %.not.i16, label %lean_dec.exit, label %31

31:                                               ; preds = %30
  tail call void @lean_dec_ref_cold(ptr noundef nonnull %2) #5
  br label %lean_dec.exit

lean_dec.exit:                                    ; preds = %31, %30, %28, %lean_dec.exit15
  ret ptr %13
}